Certificate:
    Data:
        Version: 3 (0x2)
        Serial Number:
            3d:e0:20:23:8d:e3:af:c0:3d:8d:e7:fd:e0:c7:19:29:cf:92:0a:63
        Signature Algorithm: sha1WithRSAEncryption
        Issuer: CN = localhost
        Validity
            Not Before: Jan 29 10:16:08 2025 GMT
            Not After : Jan 29 10:16:08 2035 GMT
        Subject: CN = localhost
        Subject Public Key Info:
            Public Key Algorithm: rsaEncryption
                RSA Public-Key: (2048 bit)
                Modulus:
                    00:dc:e5:d3:ea:80:35:f5:2c:1e:2a:a4:b0:37:69:
                    35:6d:b4:30:95:35:3c:38:b0:7f:8c:1a:0b:81:c4:
                    73:1e:7c:d1:c9:a4:b8:63:af:5d:21:c7:14:40:1d:
                    db:82:cb:2b:5c:19:5a:aa:95:06:c7:d0:63:5b:a4:
                    a1:a9:1b:25:27:ed:8f:0a:79:68:5f:ed:5f:d7:32:
                    7b:b9:69:42:9c:33:af:2a:80:7a:8d:19:2c:84:17:
                    c8:ca:5e:b2:fb:b4:f2:59:81:61:4d:70:41:a7:d4:
                    ba:7c:56:82:a5:c3:24:b1:32:d8:4f:18:62:13:ef:
                    d5:d8:cb:bc:a3:77:9e:8f:91:59:45:9f:d3:06:45:
                    0c:5a:e3:4c:f2:dd:af:53:29:9e:a0:54:c9:e7:60:
                    54:ca:bf:48:b4:8d:ab:9b:5d:98:fa:c0:65:1f:c4:
                    a9:12:4d:25:06:f0:cc:5b:cc:e7:1b:84:5a:2e:d7:
                    27:f0:bc:89:9b:16:40:4e:86:82:86:42:46:2c:f1:
                    e2:ad:a9:d5:33:e2:82:be:8a:1b:99:41:b2:03:a8:
                    10:7f:a1:21:51:21:a1:11:06:0a:ee:a2:ab:2a:93:
                    ee:bb:6f:47:9d:8e:8e:eb:73:22:10:b3:fc:89:64:
                    a4:68:5b:dd:63:62:73:97:91:4e:7a:ab:57:41:70:
                    ee:67
                Exponent: 65537 (0x10001)
        X509v3 extensions:
            X509v3 Subject Alternative Name: 
                DNS:localhost, URI:https://localhost/idp/
            X509v3 Subject Key Identifier: 
                B3:74:C1:64:67:D0:7F:7B:7F:3E:84:EE:BA:BC:E6:87:05:E0:1E:1A
    Signature Algorithm: sha1WithRSAEncryption
         1b:90:d7:48:5c:a2:75:dc:6f:c6:fa:9e:8f:75:14:5e:77:f8:
         8a:25:0a:09:46:95:81:d2:b2:c5:77:97:f2:04:8c:5b:b6:a6:
         32:fe:89:91:bf:a8:77:22:a7:db:9f:ff:f9:f9:5a:c0:7f:5d:
         bb:29:ce:68:96:f1:6f:f5:fd:b7:16:f9:8c:90:c2:3a:7d:44:
         99:ba:09:35:d0:83:8a:77:a2:d5:2d:8f:10:0e:db:f2:14:59:
         7f:1a:96:32:57:af:6b:9c:e3:b4:5f:ad:6b:cf:fb:ae:7f:c0:
         f6:e0:bb:59:fe:7f:56:b6:b7:ab:78:d2:57:ee:f9:81:12:40:
         8c:c0:63:20:9c:50:57:55:a9:99:17:0c:f2:33:79:b6:6a:22:
         36:ce:8e:2a:ec:27:c3:a1:6c:de:06:fe:55:91:a4:ee:e3:db:
         d4:7b:8a:be:ac:db:ed:bc:0c:ff:23:aa:a5:2e:fd:dd:7f:5f:
         73:07:3e:88:f1:bd:f8:7e:de:a1:92:ff:79:cf:4d:7e:e6:63:
         60:27:08:d6:e9:5d:43:c3:30:82:47:ec:8e:b4:42:64:4d:f6:
         ef:a8:cb:95:13:c5:3b:78:4f:e8:be:d5:73:d3:db:df:7e:99:
         df:8f:15:85:72:8f:ba:58:79:43:68:83:56:10:c9:38:a5:c5:
         0c:9a:77:09
-----BEGIN CERTIFICATE-----
MIIDBTCCAe2gAwIBAgIUPeAgI43jr8A9jef94McZKc+SCmMwDQYJKoZIhvcNAQEF
BQAwFDESMBAGA1UEAxMJbG9jYWxob3N0MB4XDTI1MDEyOTEwMTYwOFoXDTM1MDEy
OTEwMTYwOFowFDESMBAGA1UEAxMJbG9jYWxob3N0MIIBIjANBgkqhkiG9w0BAQEF
AAOCAQ8AMIIBCgKCAQEA3OXT6oA19SweKqSwN2k1bbQwlTU8OLB/jBoLgcRzHnzR
yaS4Y69dIccUQB3bgssrXBlaqpUGx9BjW6ShqRslJ+2PCnloX+1f1zJ7uWlCnDOv
KoB6jRkshBfIyl6y+7TyWYFhTXBBp9S6fFaCpcMksTLYTxhiE+/V2Mu8o3eej5FZ
RZ/TBkUMWuNM8t2vUymeoFTJ52BUyr9ItI2rm12Y+sBlH8SpEk0lBvDMW8znG4Ra
Ltcn8LyJmxZAToaChkJGLPHiranVM+KCvoobmUGyA6gQf6EhUSGhEQYK7qKrKpPu
u29HnY6O63MiELP8iWSkaFvdY2Jzl5FOeqtXQXDuZwIDAQABo08wTTAsBgNVHREE
JTAjgglsb2NhbGhvc3SGFmh0dHBzOi8vbG9jYWxob3N0L2lkcC8wHQYDVR0OBBYE
FLN0wWRn0H97fz6E7rq85ocF4B4aMA0GCSqGSIb3DQEBBQUAA4IBAQAbkNdIXKJ1
3G/G+p6PdRRed/iKJQoJRpWB0rLFd5fyBIxbtqYy/omRv6h3Iqfbn//5+VrAf127
Kc5olvFv9f23FvmMkMI6fUSZugk10IOKd6LVLY8QDtvyFFl/GpYyV69rnOO0X61r
z/uuf8D24LtZ/n9WtrereNJX7vmBEkCMwGMgnFBXVamZFwzyM3m2aiI2zo4q7CfD
oWzeBv5VkaTu49vUe4q+rNvtvAz/I6qlLv3df19zBz6I8b34ft6hkv95z01+5mNg
JwjW6V1DwzCCR+yOtEJkTfbvqMuVE8U7eE/ovtVz09vffpnfjxWFco+6WHlDaINW
EMk4pcUMmncJ
-----END CERTIFICATE-----
